target datalayout = "e-m:e-p270:32:32-p271:32:32-p272:64:64-i64:64-i128:128-f80:128-n8:16:32:64-S128"
target triple = "x86_64-pc-linux-gnu"

%struct._generic_SUNLinearSolver = type { ptr, ptr, ptr }
%struct._SUNLinearSolverContent_SPBCGS = type { i32, i32, i32, i32, double, i32, ptr, ptr, ptr, ptr, ptr, ptr, ptr, ptr, ptr, ptr, ptr, ptr, ptr, ptr }

; Function Attrs: nounwind uwtable
define i32 @SUNLinSolFree_SPBCGS(ptr noundef %0) #0 {
  %2 = alloca ptr, align 8
  store ptr %0, ptr %2, align 8, !tbaa !12
  %3 = load ptr, ptr %2, align 8, !tbaa !12
  %4 = getelementptr inbounds nuw %struct._generic_SUNLinearSolver, ptr %3, i32 0, i32 0
  %5 = load ptr, ptr %4, align 8, !tbaa !35
  %6 = icmp ne ptr %5, null
  br i1 %6, label %7, label %132

7:                                                ; preds = %1
  %8 = load ptr, ptr %2, align 8, !tbaa !12
  %9 = getelementptr inbounds nuw %struct._generic_SUNLinearSolver, ptr %8, i32 0, i32 0
  %10 = load ptr, ptr %9, align 8, !tbaa !35
  %11 = getelementptr inbounds nuw %struct._SUNLinearSolverContent_SPBCGS, ptr %10, i32 0, i32 14
  %12 = load ptr, ptr %11, align 8, !tbaa !44
  %13 = icmp ne ptr %12, null
  br i1 %13, label %14, label %24

14:                                               ; preds = %7
  %15 = load ptr, ptr %2, align 8, !tbaa !12
  %16 = getelementptr inbounds nuw %struct._generic_SUNLinearSolver, ptr %15, i32 0, i32 0
  %17 = load ptr, ptr %16, align 8, !tbaa !35
  %18 = getelementptr inbounds nuw %struct._SUNLinearSolverContent_SPBCGS, ptr %17, i32 0, i32 14
  %19 = load ptr, ptr %18, align 8, !tbaa !44
  call void @N_VDestroy(ptr noundef %19)
  %20 = load ptr, ptr %2, align 8, !tbaa !12
  %21 = getelementptr inbounds nuw %struct._generic_SUNLinearSolver, ptr %20, i32 0, i32 0
  %22 = load ptr, ptr %21, align 8, !tbaa !35
  %23 = getelementptr inbounds nuw %struct._SUNLinearSolverContent_SPBCGS, ptr %22, i32 0, i32 14
  store ptr null, ptr %23, align 8, !tbaa !44
  br label %24

24:                                               ; preds = %14, %7
  %25 = load ptr, ptr %2, align 8, !tbaa !12
  %26 = getelementptr inbounds nuw %struct._generic_SUNLinearSolver, ptr %25, i32 0, i32 0
  %27 = load ptr, ptr %26, align 8, !tbaa !35
  %28 = getelementptr inbounds nuw %struct._SUNLinearSolverContent_SPBCGS, ptr %27, i32 0, i32 13
  %29 = load ptr, ptr %28, align 8, !tbaa !45
  %30 = icmp ne ptr %29, null
  br i1 %30, label %31, label %41

31:                                               ; preds = %24
  %32 = load ptr, ptr %2, align 8, !tbaa !12
  %33 = getelementptr inbounds nuw %struct._generic_SUNLinearSolver, ptr %32, i32 0, i32 0
  %34 = load ptr, ptr %33, align 8, !tbaa !35
  %35 = getelementptr inbounds nuw %struct._SUNLinearSolverContent_SPBCGS, ptr %34, i32 0, i32 13
  %36 = load ptr, ptr %35, align 8, !tbaa !45
  call void @N_VDestroy(ptr noundef %36)
  %37 = load ptr, ptr %2, align 8, !tbaa !12
  %38 = getelementptr inbounds nuw %struct._generic_SUNLinearSolver, ptr %37, i32 0, i32 0
  %39 = load ptr, ptr %38, align 8, !tbaa !35
  %40 = getelementptr inbounds nuw %struct._SUNLinearSolverContent_SPBCGS, ptr %39, i32 0, i32 13
  store ptr null, ptr %40, align 8, !tbaa !45
  br label %41

41:                                               ; preds = %31, %24
  %42 = load ptr, ptr %2, align 8, !tbaa !12
  %43 = getelementptr inbounds nuw %struct._generic_SUNLinearSolver, ptr %42, i32 0, i32 0
  %44 = load ptr, ptr %43, align 8, !tbaa !35
  %45 = getelementptr inbounds nuw %struct._SUNLinearSolverContent_SPBCGS, ptr %44, i32 0, i32 15
  %46 = load ptr, ptr %45, align 8, !tbaa !46
  %47 = icmp ne ptr %46, null
  br i1 %47, label %48, label %58

48:                                               ; preds = %41
  %49 = load ptr, ptr %2, align 8, !tbaa !12
  %50 = getelementptr inbounds nuw %struct._generic_SUNLinearSolver, ptr %49, i32 0, i32 0
  %51 = load ptr, ptr %50, align 8, !tbaa !35
  %52 = getelementptr inbounds nuw %struct._SUNLinearSolverContent_SPBCGS, ptr %51, i32 0, i32 15
  %53 = load ptr, ptr %52, align 8, !tbaa !46
  call void @N_VDestroy(ptr noundef %53)
  %54 = load ptr, ptr %2, align 8, !tbaa !12
  %55 = getelementptr inbounds nuw %struct._generic_SUNLinearSolver, ptr %54, i32 0, i32 0
  %56 = load ptr, ptr %55, align 8, !tbaa !35
  %57 = getelementptr inbounds nuw %struct._SUNLinearSolverContent_SPBCGS, ptr %56, i32 0, i32 15
  store ptr null, ptr %57, align 8, !tbaa !46
  br label %58

58:                                               ; preds = %48, %41
  %59 = load ptr, ptr %2, align 8, !tbaa !12
  %60 = getelementptr inbounds nuw %struct._generic_SUNLinearSolver, ptr %59, i32 0, i32 0
  %61 = load ptr, ptr %60, align 8, !tbaa !35
  %62 = getelementptr inbounds nuw %struct._SUNLinearSolverContent_SPBCGS, ptr %61, i32 0, i32 16
  %63 = load ptr, ptr %62, align 8, !tbaa !47
  %64 = icmp ne ptr %63, null
  br i1 %64, label %65, label %75

65:                                               ; preds = %58
  %66 = load ptr, ptr %2, align 8, !tbaa !12
  %67 = getelementptr inbounds nuw %struct._generic_SUNLinearSolver, ptr %66, i32 0, i32 0
  %68 = load ptr, ptr %67, align 8, !tbaa !35
  %69 = getelementptr inbounds nuw %struct._SUNLinearSolverContent_SPBCGS, ptr %68, i32 0, i32 16
  %70 = load ptr, ptr %69, align 8, !tbaa !47
  call void @N_VDestroy(ptr noundef %70)
  %71 = load ptr, ptr %2, align 8, !tbaa !12
  %72 = getelementptr inbounds nuw %struct._generic_SUNLinearSolver, ptr %71, i32 0, i32 0
  %73 = load ptr, ptr %72, align 8, !tbaa !35
  %74 = getelementptr inbounds nuw %struct._SUNLinearSolverContent_SPBCGS, ptr %73, i32 0, i32 16
  store ptr null, ptr %74, align 8, !tbaa !47
  br label %75

75:                                               ; preds = %65, %58
  %76 = load ptr, ptr %2, align 8, !tbaa !12
  %77 = getelementptr inbounds nuw %struct._generic_SUNLinearSolver, ptr %76, i32 0, i32 0
  %78 = load ptr, ptr %77, align 8, !tbaa !35
  %79 = getelementptr inbounds nuw %struct._SUNLinearSolverContent_SPBCGS, ptr %78, i32 0, i32 17
  %80 = load ptr, ptr %79, align 8, !tbaa !48
  %81 = icmp ne ptr %80, null
  br i1 %81, label %82, label %92

82:                                               ; preds = %75
  %83 = load ptr, ptr %2, align 8, !tbaa !12
  %84 = getelementptr inbounds nuw %struct._generic_SUNLinearSolver, ptr %83, i32 0, i32 0
  %85 = load ptr, ptr %84, align 8, !tbaa !35
  %86 = getelementptr inbounds nuw %struct._SUNLinearSolverContent_SPBCGS, ptr %85, i32 0, i32 17
  %87 = load ptr, ptr %86, align 8, !tbaa !48
  call void @N_VDestroy(ptr noundef %87)
  %88 = load ptr, ptr %2, align 8, !tbaa !12
  %89 = getelementptr inbounds nuw %struct._generic_SUNLinearSolver, ptr %88, i32 0, i32 0
  %90 = load ptr, ptr %89, align 8, !tbaa !35
  %91 = getelementptr inbounds nuw %struct._SUNLinearSolverContent_SPBCGS, ptr %90, i32 0, i32 17
  store ptr null, ptr %91, align 8, !tbaa !48
  br label %92

92:                                               ; preds = %82, %75
  %93 = load ptr, ptr %2, align 8, !tbaa !12
  %94 = getelementptr inbounds nuw %struct._generic_SUNLinearSolver, ptr %93, i32 0, i32 0
  %95 = load ptr, ptr %94, align 8, !tbaa !35
  %96 = getelementptr inbounds nuw %struct._SUNLinearSolverContent_SPBCGS, ptr %95, i32 0, i32 18
  %97 = load ptr, ptr %96, align 8, !tbaa !49
  %98 = icmp ne ptr %97, null
  br i1 %98, label %99, label %109

99:                                               ; preds = %92
  %100 = load ptr, ptr %2, align 8, !tbaa !12
  %101 = getelementptr inbounds nuw %struct._generic_SUNLinearSolver, ptr %100, i32 0, i32 0
  %102 = load ptr, ptr %101, align 8, !tbaa !35
  %103 = getelementptr inbounds nuw %struct._SUNLinearSolverContent_SPBCGS, ptr %102, i32 0, i32 18
  %104 = load ptr, ptr %103, align 8, !tbaa !49
  call void @N_VDestroy(ptr noundef %104)
  %105 = load ptr, ptr %2, align 8, !tbaa !12
  %106 = getelementptr inbounds nuw %struct._generic_SUNLinearSolver, ptr %105, i32 0, i32 0
  %107 = load ptr, ptr %106, align 8, !tbaa !35
  %108 = getelementptr inbounds nuw %struct._SUNLinearSolverContent_SPBCGS, ptr %107, i32 0, i32 18
  store ptr null, ptr %108, align 8, !tbaa !49
  br label %109

109:                                              ; preds = %99, %92
  %110 = load ptr, ptr %2, align 8, !tbaa !12
  %111 = getelementptr inbounds nuw %struct._generic_SUNLinearSolver, ptr %110, i32 0, i32 0
  %112 = load ptr, ptr %111, align 8, !tbaa !35
  %113 = getelementptr inbounds nuw %struct._SUNLinearSolverContent_SPBCGS, ptr %112, i32 0, i32 19
  %114 = load ptr, ptr %113, align 8, !tbaa !50
  %115 = icmp ne ptr %114, null
  br i1 %115, label %116, label %126

116:                                              ; preds = %109
  %117 = load ptr, ptr %2, align 8, !tbaa !12
  %118 = getelementptr inbounds nuw %struct._generic_SUNLinearSolver, ptr %117, i32 0, i32 0
  %119 = load ptr, ptr %118, align 8, !tbaa !35
  %120 = getelementptr inbounds nuw %struct._SUNLinearSolverContent_SPBCGS, ptr %119, i32 0, i32 19
  %121 = load ptr, ptr %120, align 8, !tbaa !50
  call void @N_VDestroy(ptr noundef %121)
  %122 = load ptr, ptr %2, align 8, !tbaa !12
  %123 = getelementptr inbounds nuw %struct._generic_SUNLinearSolver, ptr %122, i32 0, i32 0
  %124 = load ptr, ptr %123, align 8, !tbaa !35
  %125 = getelementptr inbounds nuw %struct._SUNLinearSolverContent_SPBCGS, ptr %124, i32 0, i32 19
  store ptr null, ptr %125, align 8, !tbaa !50
  br label %126

126:                                              ; preds = %116, %109
  %127 = load ptr, ptr %2, align 8, !tbaa !12
  %128 = getelementptr inbounds nuw %struct._generic_SUNLinearSolver, ptr %127, i32 0, i32 0
  %129 = load ptr, ptr %128, align 8, !tbaa !35
  call void @free(ptr noundef %129) #5
  %130 = load ptr, ptr %2, align 8, !tbaa !12
  %131 = getelementptr inbounds nuw %struct._generic_SUNLinearSolver, ptr %130, i32 0, i32 0
  store ptr null, ptr %131, align 8, !tbaa !35
  br label %132

132:                                              ; preds = %126, %1
  %133 = load ptr, ptr %2, align 8, !tbaa !12
  %134 = getelementptr inbounds nuw %struct._generic_SUNLinearSolver, ptr %133, i32 0, i32 1
  %135 = load ptr, ptr %134, align 8, !tbaa !14
  %136 = icmp ne ptr %135, null
  br i1 %136, label %137, label %143

137:                                              ; preds = %132
  %138 = load ptr, ptr %2, align 8, !tbaa !12
  %139 = getelementptr inbounds nuw %struct._generic_SUNLinearSolver, ptr %138, i32 0, i32 1
  %140 = load ptr, ptr %139, align 8, !tbaa !14
  call void @free(ptr noundef %140) #5
  %141 = load ptr, ptr %2, align 8, !tbaa !12
  %142 = getelementptr inbounds nuw %struct._generic_SUNLinearSolver, ptr %141, i32 0, i32 1
  store ptr null, ptr %142, align 8, !tbaa !14
  br label %143

143:                                              ; preds = %137, %132
  %144 = load ptr, ptr %2, align 8, !tbaa !12
  call void @free(ptr noundef %144) #5
  store ptr null, ptr %2, align 8, !tbaa !12
  ret i32 0
}