; Function Attrs: nounwind uwtable
define noundef i32 @SUNLinSolFree_SPBCGS(ptr noundef captures(none) %0) #0 {
  %2 = load ptr, ptr %0, align 8, !tbaa !26
  %.not = icmp eq ptr %2, null
  br i1 %.not, label %53, label %3

3:                                                ; preds = %1
  %4 = getelementptr inbounds nuw i8, ptr %2, i64 96
  %5 = load ptr, ptr %4, align 8, !tbaa !34
  %.not36 = icmp eq ptr %5, null
  br i1 %.not36, label %9, label %6

6:                                                ; preds = %3
  tail call void @N_VDestroy(ptr noundef nonnull %5) #11
  %7 = load ptr, ptr %0, align 8, !tbaa !26
  %8 = getelementptr inbounds nuw i8, ptr %7, i64 96
  store ptr null, ptr %8, align 8, !tbaa !34
  br label %9

9:                                                ; preds = %6, %3
  %10 = phi ptr [ %7, %6 ], [ %2, %3 ]
  %11 = getelementptr inbounds nuw i8, ptr %10, i64 88
  %12 = load ptr, ptr %11, align 8, !tbaa !35
  %.not37 = icmp eq ptr %12, null
  br i1 %.not37, label %16, label %13

13:                                               ; preds = %9
  tail call void @N_VDestroy(ptr noundef nonnull %12) #11
  %14 = load ptr, ptr %0, align 8, !tbaa !26
  %15 = getelementptr inbounds nuw i8, ptr %14, i64 88
  store ptr null, ptr %15, align 8, !tbaa !35
  br label %16

16:                                               ; preds = %13, %9
  %17 = phi ptr [ %14, %13 ], [ %10, %9 ]
  %18 = getelementptr inbounds nuw i8, ptr %17, i64 104
  %19 = load ptr, ptr %18, align 8, !tbaa !36
  %.not38 = icmp eq ptr %19, null
  br i1 %.not38, label %23, label %20

20:                                               ; preds = %16
  tail call void @N_VDestroy(ptr noundef nonnull %19) #11
  %21 = load ptr, ptr %0, align 8, !tbaa !26
  %22 = getelementptr inbounds nuw i8, ptr %21, i64 104
  store ptr null, ptr %22, align 8, !tbaa !36
  br label %23

23:                                               ; preds = %20, %16
  %24 = phi ptr [ %21, %20 ], [ %17, %16 ]
  %25 = getelementptr inbounds nuw i8, ptr %24, i64 112
  %26 = load ptr, ptr %25, align 8, !tbaa !37
  %.not39 = icmp eq ptr %26, null
  br i1 %.not39, label %30, label %27

27:                                               ; preds = %23
  tail call void @N_VDestroy(ptr noundef nonnull %26) #11
  %28 = load ptr, ptr %0, align 8, !tbaa !26
  %29 = getelementptr inbounds nuw i8, ptr %28, i64 112
  store ptr null, ptr %29, align 8, !tbaa !37
  br label %30

30:                                               ; preds = %27, %23
  %31 = phi ptr [ %28, %27 ], [ %24, %23 ]
  %32 = getelementptr inbounds nuw i8, ptr %31, i64 120
  %33 = load ptr, ptr %32, align 8, !tbaa !38
  %.not40 = icmp eq ptr %33, null
  br i1 %.not40, label %37, label %34

34:                                               ; preds = %30
  tail call void @N_VDestroy(ptr noundef nonnull %33) #11
  %35 = load ptr, ptr %0, align 8, !tbaa !26
  %36 = getelementptr inbounds nuw i8, ptr %35, i64 120
  store ptr null, ptr %36, align 8, !tbaa !38
  br label %37

37:                                               ; preds = %34, %30
  %38 = phi ptr [ %35, %34 ], [ %31, %30 ]
  %39 = getelementptr inbounds nuw i8, ptr %38, i64 128
  %40 = load ptr, ptr %39, align 8, !tbaa !39
  %.not41 = icmp eq ptr %40, null
  br i1 %.not41, label %44, label %41

41:                                               ; preds = %37
  tail call void @N_VDestroy(ptr noundef nonnull %40) #11
  %42 = load ptr, ptr %0, align 8, !tbaa !26
  %43 = getelementptr inbounds nuw i8, ptr %42, i64 128
  store ptr null, ptr %43, align 8, !tbaa !39
  br label %44

44:                                               ; preds = %41, %37
  %45 = phi ptr [ %42, %41 ], [ %38, %37 ]
  %46 = getelementptr inbounds nuw i8, ptr %45, i64 136
  %47 = load ptr, ptr %46, align 8, !tbaa !40
  %.not42 = icmp eq ptr %47, null
  br i1 %.not42, label %51, label %48

48:                                               ; preds = %44
  tail call void @N_VDestroy(ptr noundef nonnull %47) #11
  %49 = load ptr, ptr %0, align 8, !tbaa !26
  %50 = getelementptr inbounds nuw i8, ptr %49, i64 136
  store ptr null, ptr %50, align 8, !tbaa !40
  br label %51

51:                                               ; preds = %48, %44
  %52 = phi ptr [ %49, %48 ], [ %45, %44 ]
  tail call void @free(ptr noundef nonnull %52) #11
  store ptr null, ptr %0, align 8, !tbaa !26
  br label %53

53:                                               ; preds = %51, %1
  %54 = getelementptr inbounds nuw i8, ptr %0, i64 8
  %55 = load ptr, ptr %54, align 8, !tbaa !3
  %.not43 = icmp eq ptr %55, null
  br i1 %.not43, label %57, label %56

56:                                               ; preds = %53
  tail call void @free(ptr noundef nonnull %55) #11
  br label %57

57:                                               ; preds = %56, %53
  tail call void @free(ptr noundef nonnull %0) #11
  ret i32 0
}